target datalayout = "e-m:e-p270:32:32-p271:32:32-p272:64:64-i64:64-i128:128-f80:128-n8:16:32:64-S128"
target triple = "x86_64-pc-linux-gnu"

%struct.rb_code_location_struct = type { %struct.rb_code_position_struct, %struct.rb_code_position_struct }
%struct.rb_code_position_struct = type { i32, i32 }
%struct.ripper_parser_ids = type { i64, i64, i64, i64, i64, i64, i64, i64, i64, i64, i64, i64, i64, i64, i64, i64, i64, i64, i64, i64, i64, i64, i64, i64, i64, i64, i64, i64, i64, i64, i64, i64, i64, i64, i64, i64, i64, i64, i64, i64, i64, i64, i64, i64, i64, i64, i64, i64, i64, i64, i64, i64, i64, i64, i64, i64, i64, i64, i64, i64, i64, i64, i64, i64, i64, i64, i64, i64, i64, i64, i64, i64, i64, i64, i64, i64, i64, i64, i64, i64, i64, i64, i64, i64, i64, i64, i64, i64, i64, i64, i64, i64, i64, i64, i64, i64, i64, i64, i64, i64, i64, i64, i64, i64, i64, i64, i64, i64, i64, i64, i64, i64, i64, i64, i64, i64, i64, i64, i64, i64, i64, i64, i64, i64, i64, i64, i64, i64, i64, i64, i64, i64, i64, i64, i64, i64, i64, i64 }
%struct.lex_context = type { i16, [2 x i8] }
%struct.parser_params = type { ptr, ptr, %struct.anon.12, i64, i64, i32, i32, i32, i32, i32, ptr, ptr, ptr, ptr, i32, i32, ptr, i64, ptr, ptr, ptr, ptr, i64, i64, %struct.anon.13, ptr, i32, ptr, i32, i64, %struct.lex_context, ptr, ptr, ptr, i16, i64, i64, i64, i64, i64, i64 }
%struct.anon.12 = type { ptr, ptr, ptr, %struct.parser_string_buffer, ptr, ptr, ptr, ptr, ptr, ptr, i32, i32, i32, i32 }
%struct.parser_string_buffer = type { ptr, ptr }
%struct.anon.13 = type { ptr, i32, i32, i32, i32 }

@ripper_parser_ids = external constant %struct.ripper_parser_ids, align 8
@.str.557 = private unnamed_addr constant [42 x i8] c"&. inside multiple assignment destination\00", align 1

; Function Attrs: nounwind sspstrong uwtable
define void @ripper_error(ptr noundef %0) #0 {
  %2 = alloca ptr, align 8
  store ptr %0, ptr %2, align 8, !tbaa !6
  %3 = load ptr, ptr %2, align 8, !tbaa !6
  %4 = getelementptr inbounds nuw %struct.parser_params, ptr %3, i32 0, i32 34
  %5 = load i16, ptr %4, align 8
  %6 = and i16 %5, -513
  %7 = or i16 %6, 512
  store i16 %7, ptr %4, align 8
  ret void
}

; Function Attrs: nounwind sspstrong uwtable
define internal i64 @ripper_dispatch1(ptr noundef %0, i64 noundef %1, i64 noundef %2) #0 {
  %4 = alloca ptr, align 8
  %5 = alloca i64, align 8
  %6 = alloca i64, align 8
  store ptr %0, ptr %4, align 8, !tbaa !6
  store i64 %1, ptr %5, align 8, !tbaa !16
  store i64 %2, ptr %6, align 8, !tbaa !16
  %7 = load ptr, ptr %4, align 8, !tbaa !6
  %8 = getelementptr inbounds nuw %struct.parser_params, ptr %7, i32 0, i32 35
  %9 = load i64, ptr %8, align 8, !tbaa !85
  %10 = load i64, ptr %5, align 8, !tbaa !16
  %11 = load i64, ptr %6, align 8, !tbaa !16
  %12 = call i64 (i64, i64, i32, ...) @rb_funcall(i64 noundef %9, i64 noundef %10, i32 noundef 1, i64 noundef %11)
  ret i64 %12
}

; Function Attrs: nounwind sspstrong uwtable
define internal i32 @parser_yyerror0(ptr noundef nonnull %0, ptr noundef nonnull %1) #0 {
  %3 = alloca ptr, align 8
  %4 = alloca ptr, align 8
  store ptr %0, ptr %3, align 8, !tbaa !6
  store ptr %1, ptr %4, align 8, !tbaa !24
  %5 = load ptr, ptr %3, align 8, !tbaa !6
  %6 = load i64, ptr getelementptr inbounds nuw (%struct.ripper_parser_ids, ptr @ripper_parser_ids, i32 0, i32 82), align 8, !tbaa !642
  br i1 false, label %7, label %11

7:                                                ; preds = %2
  %8 = load ptr, ptr %4, align 8, !tbaa !24
  %9 = call i64 @strlen(ptr noundef %8) #27
  %10 = call i1 @llvm.is.constant.i64(i64 %9)
  br label %11

11:                                               ; preds = %7, %2
  %12 = phi i1 [ false, %2 ], [ %10, %7 ]
  %13 = select i1 %12, ptr @rb_enc_str_new_static, ptr @rb_enc_str_new
  %14 = load ptr, ptr %4, align 8, !tbaa !24
  %15 = load ptr, ptr %4, align 8, !tbaa !24
  %16 = call i64 @strlen(ptr noundef %15) #27
  %17 = load ptr, ptr %3, align 8, !tbaa !6
  %18 = getelementptr inbounds nuw %struct.parser_params, ptr %17, i32 0, i32 18
  %19 = load ptr, ptr %18, align 8, !tbaa !75
  %20 = call i64 %13(ptr noundef %14, i64 noundef %16, ptr noundef %19)
  %21 = call i64 @ripper_dispatch1(ptr noundef %5, i64 noundef %6, i64 noundef %20)
  %22 = load ptr, ptr %3, align 8, !tbaa !6
  call void @ripper_error(ptr noundef %22)
  ret i32 0
}

; Function Attrs: nounwind sspstrong uwtable
define internal i32 @parser_yyerror(ptr noundef nonnull %0, ptr noundef nonnull %1, ptr noundef nonnull %2) #0 {
  %4 = alloca ptr, align 8
  %5 = alloca ptr, align 8
  %6 = alloca ptr, align 8
  %7 = alloca ptr, align 8
  %8 = alloca ptr, align 8
  store ptr %0, ptr %4, align 8, !tbaa !6
  store ptr %1, ptr %5, align 8, !tbaa !22
  store ptr %2, ptr %6, align 8, !tbaa !24
  call void @llvm.lifetime.start.p0(i64 8, ptr %7) #25
  store ptr null, ptr %7, align 8, !tbaa !24
  call void @llvm.lifetime.start.p0(i64 8, ptr %8) #25
  store ptr null, ptr %8, align 8, !tbaa !24
  %9 = load ptr, ptr %4, align 8, !tbaa !6
  %10 = getelementptr inbounds nuw %struct.parser_params, ptr %9, i32 0, i32 15
  %11 = load i32, ptr %10, align 4, !tbaa !332
  %12 = load ptr, ptr %5, align 8, !tbaa !22
  %13 = getelementptr inbounds nuw %struct.rb_code_location_struct, ptr %12, i32 0, i32 0
  %14 = getelementptr inbounds nuw %struct.rb_code_position_struct, ptr %13, i32 0, i32 0
  %15 = load i32, ptr %14, align 4, !tbaa !293
  %16 = icmp eq i32 %11, %15
  br i1 %16, label %17, label %61

17:                                               ; preds = %3
  %18 = load ptr, ptr %4, align 8, !tbaa !6
  %19 = getelementptr inbounds nuw %struct.parser_params, ptr %18, i32 0, i32 15
  %20 = load i32, ptr %19, align 4, !tbaa !332
  %21 = load ptr, ptr %5, align 8, !tbaa !22
  %22 = getelementptr inbounds nuw %struct.rb_code_location_struct, ptr %21, i32 0, i32 1
  %23 = getelementptr inbounds nuw %struct.rb_code_position_struct, ptr %22, i32 0, i32 0
  %24 = load i32, ptr %23, align 4, !tbaa !154
  %25 = icmp eq i32 %20, %24
  br i1 %25, label %26, label %61

26:                                               ; preds = %17
  %27 = load ptr, ptr %4, align 8, !tbaa !6
  %28 = getelementptr inbounds nuw %struct.parser_params, ptr %27, i32 0, i32 2
  %29 = getelementptr inbounds nuw %struct.anon.12, ptr %28, i32 0, i32 7
  %30 = load ptr, ptr %29, align 8, !tbaa !283
  store ptr %30, ptr %7, align 8, !tbaa !24
  %31 = load ptr, ptr %4, align 8, !tbaa !6
  %32 = getelementptr inbounds nuw %struct.parser_params, ptr %31, i32 0, i32 2
  %33 = getelementptr inbounds nuw %struct.anon.12, ptr %32, i32 0, i32 9
  %34 = load ptr, ptr %33, align 8, !tbaa !198
  store ptr %34, ptr %8, align 8, !tbaa !24
  %35 = load ptr, ptr %4, align 8, !tbaa !6
  %36 = getelementptr inbounds nuw %struct.parser_params, ptr %35, i32 0, i32 2
  %37 = getelementptr inbounds nuw %struct.anon.12, ptr %36, i32 0, i32 6
  %38 = load ptr, ptr %37, align 8, !tbaa !199
  %39 = load ptr, ptr %5, align 8, !tbaa !22
  %40 = getelementptr inbounds nuw %struct.rb_code_location_struct, ptr %39, i32 0, i32 0
  %41 = getelementptr inbounds nuw %struct.rb_code_position_struct, ptr %40, i32 0, i32 1
  %42 = load i32, ptr %41, align 4, !tbaa !221
  %43 = sext i32 %42 to i64
  %44 = getelementptr inbounds i8, ptr %38, i64 %43
  %45 = load ptr, ptr %4, align 8, !tbaa !6
  %46 = getelementptr inbounds nuw %struct.parser_params, ptr %45, i32 0, i32 2
  %47 = getelementptr inbounds nuw %struct.anon.12, ptr %46, i32 0, i32 9
  store ptr %44, ptr %47, align 8, !tbaa !198
  %48 = load ptr, ptr %4, align 8, !tbaa !6
  %49 = getelementptr inbounds nuw %struct.parser_params, ptr %48, i32 0, i32 2
  %50 = getelementptr inbounds nuw %struct.anon.12, ptr %49, i32 0, i32 6
  %51 = load ptr, ptr %50, align 8, !tbaa !199
  %52 = load ptr, ptr %5, align 8, !tbaa !22
  %53 = getelementptr inbounds nuw %struct.rb_code_location_struct, ptr %52, i32 0, i32 1
  %54 = getelementptr inbounds nuw %struct.rb_code_position_struct, ptr %53, i32 0, i32 1
  %55 = load i32, ptr %54, align 4, !tbaa !222
  %56 = sext i32 %55 to i64
  %57 = getelementptr inbounds i8, ptr %51, i64 %56
  %58 = load ptr, ptr %4, align 8, !tbaa !6
  %59 = getelementptr inbounds nuw %struct.parser_params, ptr %58, i32 0, i32 2
  %60 = getelementptr inbounds nuw %struct.anon.12, ptr %59, i32 0, i32 7
  store ptr %57, ptr %60, align 8, !tbaa !283
  br label %61

61:                                               ; preds = %26, %17, %3
  %62 = load ptr, ptr %4, align 8, !tbaa !6
  %63 = load ptr, ptr %6, align 8, !tbaa !24
  %64 = call i32 @parser_yyerror0(ptr noundef %62, ptr noundef %63)
  %65 = load ptr, ptr %7, align 8, !tbaa !24
  %66 = icmp ne ptr %65, null
  br i1 %66, label %67, label %76

67:                                               ; preds = %61
  %68 = load ptr, ptr %8, align 8, !tbaa !24
  %69 = load ptr, ptr %4, align 8, !tbaa !6
  %70 = getelementptr inbounds nuw %struct.parser_params, ptr %69, i32 0, i32 2
  %71 = getelementptr inbounds nuw %struct.anon.12, ptr %70, i32 0, i32 9
  store ptr %68, ptr %71, align 8, !tbaa !198
  %72 = load ptr, ptr %7, align 8, !tbaa !24
  %73 = load ptr, ptr %4, align 8, !tbaa !6
  %74 = getelementptr inbounds nuw %struct.parser_params, ptr %73, i32 0, i32 2
  %75 = getelementptr inbounds nuw %struct.anon.12, ptr %74, i32 0, i32 7
  store ptr %72, ptr %75, align 8, !tbaa !283
  br label %76

76:                                               ; preds = %67, %61
  call void @llvm.lifetime.end.p0(i64 8, ptr %8) #25
  call void @llvm.lifetime.end.p0(i64 8, ptr %7) #25
  ret i32 0
}

; Function Attrs: nounwind sspstrong uwtable
define internal void @anddot_multiple_assignment_check(ptr noundef %0, ptr noundef %1, i64 noundef %2) #0 {
  %4 = alloca ptr, align 8
  %5 = alloca ptr, align 8
  %6 = alloca i64, align 8
  store ptr %0, ptr %4, align 8, !tbaa !6
  store ptr %1, ptr %5, align 8, !tbaa !22
  store i64 %2, ptr %6, align 8, !tbaa !16
  %7 = load i64, ptr %6, align 8, !tbaa !16
  %8 = icmp eq i64 %7, 150
  br i1 %8, label %9, label %13

9:                                                ; preds = %3
  %10 = load ptr, ptr %4, align 8, !tbaa !6
  %11 = load ptr, ptr %5, align 8, !tbaa !22
  %12 = call i32 @parser_yyerror(ptr noundef %10, ptr noundef %11, ptr noundef @.str.557)
  br label %13

13:                                               ; preds = %9, %3
  ret void
}