; Function Attrs: nounwind sspstrong uwtable
define internal fastcc void @anddot_multiple_assignment_check(ptr noundef captures(none) %0, ptr noundef nonnull readonly captures(none) %1, i64 noundef %2) unnamed_addr #0 {
  %4 = icmp eq i64 %2, 150
  br i1 %4, label %5, label %parser_yyerror.exit

5:                                                ; preds = %3
  %6 = getelementptr inbounds nuw i8, ptr %0, i64 196
  %7 = load i32, ptr %6, align 4, !tbaa !42
  %8 = load i32, ptr %1, align 4, !tbaa !51
  %9 = icmp eq i32 %7, %8
  br i1 %9, label %10, label %29

10:                                               ; preds = %5
  %11 = getelementptr inbounds nuw i8, ptr %1, i64 8
  %12 = load i32, ptr %11, align 4, !tbaa !55
  %13 = icmp eq i32 %7, %12
  br i1 %13, label %14, label %29

14:                                               ; preds = %10
  %15 = getelementptr inbounds nuw i8, ptr %0, i64 80
  %16 = load ptr, ptr %15, align 8, !tbaa !48
  %17 = getelementptr inbounds nuw i8, ptr %0, i64 96
  %18 = load ptr, ptr %17, align 8, !tbaa !41
  %19 = getelementptr inbounds nuw i8, ptr %0, i64 72
  %20 = load ptr, ptr %19, align 8, !tbaa !44
  %21 = getelementptr inbounds nuw i8, ptr %1, i64 4
  %22 = load i32, ptr %21, align 4, !tbaa !54
  %23 = sext i32 %22 to i64
  %24 = getelementptr inbounds i8, ptr %20, i64 %23
  store ptr %24, ptr %17, align 8, !tbaa !41
  %25 = getelementptr inbounds nuw i8, ptr %1, i64 12
  %26 = load i32, ptr %25, align 4, !tbaa !56
  %27 = sext i32 %26 to i64
  %28 = getelementptr inbounds i8, ptr %20, i64 %27
  store ptr %28, ptr %15, align 8, !tbaa !48
  br label %29

29:                                               ; preds = %14, %10, %5
  %.019.i = phi ptr [ %16, %14 ], [ null, %10 ], [ null, %5 ]
  %.0.i = phi ptr [ %18, %14 ], [ null, %10 ], [ null, %5 ]
  %30 = load i64, ptr getelementptr inbounds nuw (i8, ptr @ripper_parser_ids, i64 656), align 8, !tbaa !175
  %31 = getelementptr inbounds nuw i8, ptr %0, i64 216
  %32 = load ptr, ptr %31, align 8, !tbaa !49
  %33 = tail call i64 @rb_enc_str_new(ptr noundef nonnull @.str.557, i64 noundef 41, ptr noundef %32) #31
  %34 = getelementptr i8, ptr %0, i64 368
  %.val.i.i = load i64, ptr %34, align 8, !tbaa !46
  %35 = tail call i64 (i64, i64, i32, ...) @rb_funcall(i64 noundef %.val.i.i, i64 noundef %30, i32 noundef 1, i64 noundef %33) #31
  %36 = getelementptr inbounds nuw i8, ptr %0, i64 360
  %37 = load i16, ptr %36, align 8
  %38 = or i16 %37, 512
  store i16 %38, ptr %36, align 8
  %.not.i = icmp eq ptr %.019.i, null
  br i1 %.not.i, label %parser_yyerror.exit, label %39

39:                                               ; preds = %29
  %40 = getelementptr inbounds nuw i8, ptr %0, i64 96
  store ptr %.0.i, ptr %40, align 8, !tbaa !41
  %41 = getelementptr inbounds nuw i8, ptr %0, i64 80
  store ptr %.019.i, ptr %41, align 8, !tbaa !48
  br label %parser_yyerror.exit

parser_yyerror.exit:                              ; preds = %39, %29, %3
  ret void
}